target datalayout = "e-m:e-p270:32:32-p271:32:32-p272:64:64-i64:64-i128:128-f80:128-n8:16:32:64-S128"
target triple = "x86_64-unknown-linux-gnu"

%"class.llvh::StringRef" = type { ptr, i64 }
%"class.llvh::cl::opt.107" = type { %"class.llvh::cl::Option.base", %"class.llvh::cl::opt_storage.108", %"class.llvh::cl::parser.41" }
%"class.llvh::cl::Option.base" = type <{ ptr, i32, i16, [2 x i8], i32, i32, %"class.llvh::StringRef", %"class.llvh::StringRef", %"class.llvh::StringRef", ptr, %"class.llvh::SmallPtrSet", i8 }>
%"class.llvh::SmallPtrSet" = type { %"class.llvh::SmallPtrSetImpl.base", [4 x ptr] }
%"class.llvh::SmallPtrSetImpl.base" = type { %"class.llvh::SmallPtrSetImplBase.base" }
%"class.llvh::SmallPtrSetImplBase.base" = type <{ ptr, ptr, i32, i32, i32 }>
%"class.llvh::cl::opt_storage.108" = type { ptr, %"struct.llvh::cl::OptionValue.109" }
%"struct.llvh::cl::OptionValue.109" = type { %"struct.llvh::cl::OptionValueBase.110" }
%"struct.llvh::cl::OptionValueBase.110" = type { %"struct.llvh::cl::GenericOptionValue" }
%"struct.llvh::cl::GenericOptionValue" = type { ptr }
%"class.llvh::cl::parser.41" = type { %"class.llvh::cl::basic_parser" }
%"class.llvh::cl::basic_parser" = type { %"class.llvh::cl::basic_parser_impl" }
%"class.llvh::cl::basic_parser_impl" = type { ptr }
%"class.llvh::cl::Option" = type <{ ptr, i32, i16, [2 x i8], i32, i32, %"class.llvh::StringRef", %"class.llvh::StringRef", %"class.llvh::StringRef", ptr, %"class.llvh::SmallPtrSet", i8, [7 x i8] }>

; Function Attrs: mustprogress nounwind uwtable
define internal void @_ZN4llvh2cl15OptionValueBaseIN12_GLOBAL__N_111HelpPrinterELb1EE8setValueIbEEvRKT_(ptr noundef nonnull align 8 dereferenceable(8) %this, ptr noundef nonnull align 1 dereferenceable(1) %0) #0 align 2 {
entry:
  %this.addr = alloca ptr, align 8
  %.addr = alloca ptr, align 8
  store ptr %this, ptr %this.addr, align 8
  store ptr %0, ptr %.addr, align 8
  ret void
}

; Function Attrs: mustprogress nounwind uwtable
define internal noundef nonnull align 8 dereferenceable(8) ptr @_ZN4llvh2cl11OptionValueIN12_GLOBAL__N_111HelpPrinterEEaSIbEERS4_RKT_(ptr noundef nonnull align 8 dereferenceable(8) %this, ptr noundef nonnull align 1 dereferenceable(1) %V) #0 align 2 {
entry:
  %this.addr = alloca ptr, align 8
  %V.addr = alloca ptr, align 8
  store ptr %this, ptr %this.addr, align 8
  store ptr %V, ptr %V.addr, align 8
  %this1 = load ptr, ptr %this.addr, align 8
  %0 = load ptr, ptr %V.addr, align 8
  call void @_ZN4llvh2cl15OptionValueBaseIN12_GLOBAL__N_111HelpPrinterELb1EE8setValueIbEEvRKT_(ptr noundef nonnull align 8 dereferenceable(8) %this1, ptr noundef nonnull align 1 dereferenceable(1) %0)
  ret ptr %this1
}

; Function Attrs: mustprogress nounwind uwtable
define internal void @_ZN12_GLOBAL__N_111HelpPrinteraSEb(ptr noundef nonnull align 8 dereferenceable(9) %this, i1 noundef zeroext %Value) #0 align 2 {
entry:
  %this.addr = alloca ptr, align 8
  %Value.addr = alloca i8, align 1
  store ptr %this, ptr %this.addr, align 8
  %frombool = zext i1 %Value to i8
  store i8 %frombool, ptr %Value.addr, align 1
  %this1 = load ptr, ptr %this.addr, align 8
  %0 = load i8, ptr %Value.addr, align 1
  %tobool = trunc i8 %0 to i1
  br i1 %tobool, label %if.end, label %if.then

if.then:                                          ; preds = %entry
  ret void

if.end:                                           ; preds = %entry
  call void @_ZN12_GLOBAL__N_111HelpPrinter9printHelpEv(ptr noundef nonnull align 8 dereferenceable(9) %this1)
  call void @exit(i32 noundef 0) #15
  unreachable
}

; Function Attrs: mustprogress nounwind uwtable
define internal void @_ZNK4llvh2cl11opt_storageIN12_GLOBAL__N_111HelpPrinterELb1ELb1EE14check_locationEv(ptr noundef nonnull align 8 dereferenceable(16) %this) #0 align 2 {
entry:
  %this.addr = alloca ptr, align 8
  store ptr %this, ptr %this.addr, align 8
  ret void
}

; Function Attrs: mustprogress nounwind uwtable
define linkonce_odr hidden void @_ZN4llvh2cl6Option11setPositionEj(ptr noundef nonnull align 8 dereferenceable(145) %this, i32 noundef %pos) #0 comdat align 2 {
entry:
  %this.addr = alloca ptr, align 8
  %pos.addr = alloca i32, align 4
  store ptr %this, ptr %this.addr, align 8
  store i32 %pos, ptr %pos.addr, align 4
  %this1 = load ptr, ptr %this.addr, align 8
  %0 = load i32, ptr %pos.addr, align 4
  %Position = getelementptr inbounds %"class.llvh::cl::Option", ptr %this1, i32 0, i32 4
  store i32 %0, ptr %Position, align 8
  ret void
}

; Function Attrs: mustprogress nounwind uwtable
define internal void @_ZN4llvh2cl11opt_storageIN12_GLOBAL__N_111HelpPrinterELb1ELb1EE8setValueIbEEvRKT_b(ptr noundef nonnull align 8 dereferenceable(16) %this, ptr noundef nonnull align 1 dereferenceable(1) %V, i1 noundef zeroext %initial) #0 align 2 {
entry:
  %this.addr = alloca ptr, align 8
  %V.addr = alloca ptr, align 8
  %initial.addr = alloca i8, align 1
  store ptr %this, ptr %this.addr, align 8
  store ptr %V, ptr %V.addr, align 8
  %frombool = zext i1 %initial to i8
  store i8 %frombool, ptr %initial.addr, align 1
  %this1 = load ptr, ptr %this.addr, align 8
  call void @_ZNK4llvh2cl11opt_storageIN12_GLOBAL__N_111HelpPrinterELb1ELb1EE14check_locationEv(ptr noundef nonnull align 8 dereferenceable(16) %this1)
  %0 = load ptr, ptr %V.addr, align 8
  %1 = load i8, ptr %0, align 1
  %tobool = trunc i8 %1 to i1
  %Location = getelementptr inbounds %"class.llvh::cl::opt_storage.108", ptr %this1, i32 0, i32 0
  %2 = load ptr, ptr %Location, align 8
  call void @_ZN12_GLOBAL__N_111HelpPrinteraSEb(ptr noundef nonnull align 8 dereferenceable(9) %2, i1 noundef zeroext %tobool)
  %3 = load i8, ptr %initial.addr, align 1
  %tobool2 = trunc i8 %3 to i1
  br i1 %tobool2, label %if.then, label %if.end

if.then:                                          ; preds = %entry
  %4 = load ptr, ptr %V.addr, align 8
  %Default = getelementptr inbounds %"class.llvh::cl::opt_storage.108", ptr %this1, i32 0, i32 1
  %call = call noundef nonnull align 8 dereferenceable(8) ptr @_ZN4llvh2cl11OptionValueIN12_GLOBAL__N_111HelpPrinterEEaSIbEERS4_RKT_(ptr noundef nonnull align 8 dereferenceable(8) %Default, ptr noundef nonnull align 1 dereferenceable(1) %4)
  br label %if.end

if.end:                                           ; preds = %if.then, %entry
  ret void
}

; Function Attrs: mustprogress nounwind uwtable
define internal noundef zeroext i1 @_ZN4llvh2cl3optIN12_GLOBAL__N_111HelpPrinterELb1ENS0_6parserIbEEE16handleOccurrenceEjNS_9StringRefES7_(ptr noundef nonnull align 8 dereferenceable(176) %this, i32 noundef %pos, ptr %ArgName.coerce0, i64 %ArgName.coerce1, ptr %Arg.coerce0, i64 %Arg.coerce1) unnamed_addr #0 align 2 {
entry:
  %retval = alloca i1, align 1
  %ArgName = alloca %"class.llvh::StringRef", align 8
  %Arg = alloca %"class.llvh::StringRef", align 8
  %this.addr = alloca ptr, align 8
  %pos.addr = alloca i32, align 4
  %Val = alloca i8, align 1
  %agg.tmp = alloca %"class.llvh::StringRef", align 8
  %agg.tmp2 = alloca %"class.llvh::StringRef", align 8
  %0 = getelementptr inbounds { ptr, i64 }, ptr %ArgName, i32 0, i32 0
  store ptr %ArgName.coerce0, ptr %0, align 8
  %1 = getelementptr inbounds { ptr, i64 }, ptr %ArgName, i32 0, i32 1
  store i64 %ArgName.coerce1, ptr %1, align 8
  %2 = getelementptr inbounds { ptr, i64 }, ptr %Arg, i32 0, i32 0
  store ptr %Arg.coerce0, ptr %2, align 8
  %3 = getelementptr inbounds { ptr, i64 }, ptr %Arg, i32 0, i32 1
  store i64 %Arg.coerce1, ptr %3, align 8
  store ptr %this, ptr %this.addr, align 8
  store i32 %pos, ptr %pos.addr, align 4
  %this1 = load ptr, ptr %this.addr, align 8
  store i8 0, ptr %Val, align 1
  %Parser = getelementptr inbounds %"class.llvh::cl::opt.107", ptr %this1, i32 0, i32 2
  call void @llvm.memcpy.p0.p0.i64(ptr align 8 %agg.tmp, ptr align 8 %ArgName, i64 16, i1 false)
  call void @llvm.memcpy.p0.p0.i64(ptr align 8 %agg.tmp2, ptr align 8 %Arg, i64 16, i1 false)
  %4 = getelementptr inbounds { ptr, i64 }, ptr %agg.tmp, i32 0, i32 0
  %5 = load ptr, ptr %4, align 8
  %6 = getelementptr inbounds { ptr, i64 }, ptr %agg.tmp, i32 0, i32 1
  %7 = load i64, ptr %6, align 8
  %8 = getelementptr inbounds { ptr, i64 }, ptr %agg.tmp2, i32 0, i32 0
  %9 = load ptr, ptr %8, align 8
  %10 = getelementptr inbounds { ptr, i64 }, ptr %agg.tmp2, i32 0, i32 1
  %11 = load i64, ptr %10, align 8
  %call = call noundef zeroext i1 @_ZN4llvh2cl6parserIbE5parseERNS0_6OptionENS_9StringRefES5_Rb(ptr noundef nonnull align 8 dereferenceable(8) %Parser, ptr noundef nonnull align 8 dereferenceable(145) %this1, ptr %5, i64 %7, ptr %9, i64 %11, ptr noundef nonnull align 1 dereferenceable(1) %Val)
  br i1 %call, label %if.then, label %if.end

if.then:                                          ; preds = %entry
  store i1 true, ptr %retval, align 1
  br label %return

if.end:                                           ; preds = %entry
  %add.ptr = getelementptr inbounds i8, ptr %this1, i64 152
  call void @_ZN4llvh2cl11opt_storageIN12_GLOBAL__N_111HelpPrinterELb1ELb1EE8setValueIbEEvRKT_b(ptr noundef nonnull align 8 dereferenceable(16) %add.ptr, ptr noundef nonnull align 1 dereferenceable(1) %Val, i1 noundef zeroext false)
  %12 = load i32, ptr %pos.addr, align 4
  call void @_ZN4llvh2cl6Option11setPositionEj(ptr noundef nonnull align 8 dereferenceable(145) %this1, i32 noundef %12)
  store i1 false, ptr %retval, align 1
  br label %return

return:                                           ; preds = %if.end, %if.then
  %13 = load i1, ptr %retval, align 1
  ret i1 %13
}