; Function Attrs: mustprogress nounwind uwtable
define internal noundef zeroext i1 @_ZN4llvh2cl3optIN12_GLOBAL__N_111HelpPrinterELb1ENS0_6parserIbEEE16handleOccurrenceEjNS_9StringRefES7_(ptr nocapture noundef nonnull align 8 dereferenceable(176) %this, i32 noundef %pos, ptr nocapture readnone %ArgName.coerce0, i64 %ArgName.coerce1, ptr %Arg.coerce0, i64 %Arg.coerce1) unnamed_addr #0 align 2 {
entry:
  %Val = alloca i8, align 1
  store i8 0, ptr %Val, align 1
  %call = call noundef zeroext i1 @_ZN4llvh2cl6parserIbE5parseERNS0_6OptionENS_9StringRefES5_Rb(ptr nonnull align 8 poison, ptr noundef nonnull align 8 dereferenceable(145) %this, ptr poison, i64 poison, ptr %Arg.coerce0, i64 %Arg.coerce1, ptr noundef nonnull align 1 dereferenceable(1) %Val)
  br i1 %call, label %return, label %if.end

if.end:                                           ; preds = %entry
  %Val.val = load i8, ptr %Val, align 1
  %0 = and i8 %Val.val, 1
  %tobool.not.i = icmp eq i8 %0, 0
  br i1 %tobool.not.i, label %_ZN4llvh2cl11opt_storageIN12_GLOBAL__N_111HelpPrinterELb1ELb1EE8setValueIbEEvRKT_b.exit, label %if.end.i.i

if.end.i.i:                                       ; preds = %if.end
  %add.ptr = getelementptr inbounds i8, ptr %this, i64 152
  %add.ptr.val = load ptr, ptr %add.ptr, align 8
  tail call fastcc void @_ZN12_GLOBAL__N_111HelpPrinter9printHelpEv(ptr noundef nonnull align 8 dereferenceable(9) %add.ptr.val)
  tail call void @exit(i32 noundef 0) #28
  unreachable

_ZN4llvh2cl11opt_storageIN12_GLOBAL__N_111HelpPrinterELb1ELb1EE8setValueIbEEvRKT_b.exit: ; preds = %if.end
  %Position.i = getelementptr inbounds i8, ptr %this, i64 16
  store i32 %pos, ptr %Position.i, align 8
  br label %return

return:                                           ; preds = %entry, %_ZN4llvh2cl11opt_storageIN12_GLOBAL__N_111HelpPrinterELb1ELb1EE8setValueIbEEvRKT_b.exit
  ret i1 %call
}